; Function Attrs: nounwind uwtable
define internal noundef i32 @luaB_corunning(ptr noundef %0) #0 {
  %2 = tail call i32 @lua_pushthread(ptr noundef %0) #8
  %.not = icmp eq i32 %2, 0
  br i1 %.not, label %4, label %3

3:                                                ; preds = %1
  tail call void @lua_pushnil(ptr noundef %0) #8
  br label %4

4:                                                ; preds = %3, %1
  ret i32 1
}